target datalayout = "e-m:e-p270:32:32-p271:32:32-p272:64:64-i64:64-i128:128-f80:128-n8:16:32:64-S128"
target triple = "x86_64-pc-linux-gnu"

%struct._Node = type { %union.anon }
%union.anon = type { %struct.StrNode }
%struct.StrNode = type { %struct.NodeBase, ptr, ptr, i32, i32, [24 x i8] }
%struct.NodeBase = type { i32 }
%struct.ConsAltNode = type { %struct.NodeBase, ptr, ptr }
%struct.QtfrNode = type { %struct.NodeBase, i32, ptr, i32, i32, i32, i32, ptr, ptr, i32 }
%struct.EncloseNode = type { %struct.NodeBase, i32, i32, i32, i32, i32, ptr, i64, i64, i32, i32 }
%struct.AnchorNode = type { %struct.NodeBase, i32, ptr, i32, i32 }
%struct.CallNode = type { %struct.NodeBase, i32, i32, ptr, ptr, ptr, ptr }

; Function Attrs: nounwind sspstrong uwtable
define internal i32 @subexp_recursive_check(ptr noundef %0) #0 {
  %2 = alloca i32, align 4
  %3 = alloca ptr, align 8
  %4 = alloca i32, align 4
  %5 = alloca ptr, align 8
  %6 = alloca i32, align 4
  store ptr %0, ptr %3, align 8, !tbaa !66
  call void @llvm.lifetime.start.p0(i64 4, ptr %4) #11
  store i32 0, ptr %4, align 4, !tbaa !7
  %7 = load ptr, ptr %3, align 8, !tbaa !66
  %8 = getelementptr inbounds nuw %struct._Node, ptr %7, i32 0, i32 0
  %9 = getelementptr inbounds nuw %struct.NodeBase, ptr %8, i32 0, i32 0
  %10 = load i32, ptr %9, align 8, !tbaa !38
  switch i32 %10, label %94 [
    i32 8, label %11
    i32 9, label %11
    i32 5, label %27
    i32 7, label %33
    i32 10, label %45
    i32 6, label %60
  ]

11:                                               ; preds = %1, %1
  br label %12

12:                                               ; preds = %20, %11
  %13 = load ptr, ptr %3, align 8, !tbaa !66
  %14 = getelementptr inbounds nuw %struct._Node, ptr %13, i32 0, i32 0
  %15 = getelementptr inbounds nuw %struct.ConsAltNode, ptr %14, i32 0, i32 1
  %16 = load ptr, ptr %15, align 8, !tbaa !38
  %17 = call i32 @subexp_recursive_check(ptr noundef %16)
  %18 = load i32, ptr %4, align 4, !tbaa !7
  %19 = or i32 %18, %17
  store i32 %19, ptr %4, align 4, !tbaa !7
  br label %20

20:                                               ; preds = %12
  %21 = load ptr, ptr %3, align 8, !tbaa !66
  %22 = getelementptr inbounds nuw %struct._Node, ptr %21, i32 0, i32 0
  %23 = getelementptr inbounds nuw %struct.ConsAltNode, ptr %22, i32 0, i32 2
  %24 = load ptr, ptr %23, align 8, !tbaa !38
  store ptr %24, ptr %3, align 8, !tbaa !66
  %25 = icmp ne ptr %24, null
  br i1 %25, label %12, label %26, !llvm.loop !195

26:                                               ; preds = %20
  br label %95

27:                                               ; preds = %1
  %28 = load ptr, ptr %3, align 8, !tbaa !66
  %29 = getelementptr inbounds nuw %struct._Node, ptr %28, i32 0, i32 0
  %30 = getelementptr inbounds nuw %struct.QtfrNode, ptr %29, i32 0, i32 2
  %31 = load ptr, ptr %30, align 8, !tbaa !38
  %32 = call i32 @subexp_recursive_check(ptr noundef %31)
  store i32 %32, ptr %4, align 4, !tbaa !7
  br label %95

33:                                               ; preds = %1
  call void @llvm.lifetime.start.p0(i64 8, ptr %5) #11
  %34 = load ptr, ptr %3, align 8, !tbaa !66
  %35 = getelementptr inbounds nuw %struct._Node, ptr %34, i32 0, i32 0
  store ptr %35, ptr %5, align 8, !tbaa !36
  %36 = load ptr, ptr %5, align 8, !tbaa !36
  %37 = getelementptr inbounds nuw %struct.AnchorNode, ptr %36, i32 0, i32 1
  %38 = load i32, ptr %37, align 4, !tbaa !106
  switch i32 %38, label %44 [
    i32 1024, label %39
    i32 2048, label %39
    i32 4096, label %39
    i32 8192, label %39
  ]

39:                                               ; preds = %33, %33, %33, %33
  %40 = load ptr, ptr %5, align 8, !tbaa !36
  %41 = getelementptr inbounds nuw %struct.AnchorNode, ptr %40, i32 0, i32 2
  %42 = load ptr, ptr %41, align 8, !tbaa !108
  %43 = call i32 @subexp_recursive_check(ptr noundef %42)
  store i32 %43, ptr %4, align 4, !tbaa !7
  br label %44

44:                                               ; preds = %33, %39
  call void @llvm.lifetime.end.p0(i64 8, ptr %5) #11
  br label %95

45:                                               ; preds = %1
  %46 = load ptr, ptr %3, align 8, !tbaa !66
  %47 = getelementptr inbounds nuw %struct._Node, ptr %46, i32 0, i32 0
  %48 = getelementptr inbounds nuw %struct.CallNode, ptr %47, i32 0, i32 5
  %49 = load ptr, ptr %48, align 8, !tbaa !38
  %50 = call i32 @subexp_recursive_check(ptr noundef %49)
  store i32 %50, ptr %4, align 4, !tbaa !7
  %51 = load i32, ptr %4, align 4, !tbaa !7
  %52 = icmp ne i32 %51, 0
  br i1 %52, label %53, label %59

53:                                               ; preds = %45
  %54 = load ptr, ptr %3, align 8, !tbaa !66
  %55 = getelementptr inbounds nuw %struct._Node, ptr %54, i32 0, i32 0
  %56 = getelementptr inbounds nuw %struct.CallNode, ptr %55, i32 0, i32 1
  %57 = load i32, ptr %56, align 4, !tbaa !38
  %58 = or i32 %57, 128
  store i32 %58, ptr %56, align 4, !tbaa !38
  br label %59

59:                                               ; preds = %53, %45
  br label %95

60:                                               ; preds = %1
  %61 = load ptr, ptr %3, align 8, !tbaa !66
  %62 = getelementptr inbounds nuw %struct._Node, ptr %61, i32 0, i32 0
  %63 = getelementptr inbounds nuw %struct.EncloseNode, ptr %62, i32 0, i32 1
  %64 = load i32, ptr %63, align 4, !tbaa !38
  %65 = and i32 %64, 16
  %66 = icmp ne i32 %65, 0
  br i1 %66, label %67, label %68

67:                                               ; preds = %60
  store i32 0, ptr %2, align 4
  store i32 1, ptr %6, align 4
  br label %97

68:                                               ; preds = %60
  %69 = load ptr, ptr %3, align 8, !tbaa !66
  %70 = getelementptr inbounds nuw %struct._Node, ptr %69, i32 0, i32 0
  %71 = getelementptr inbounds nuw %struct.EncloseNode, ptr %70, i32 0, i32 1
  %72 = load i32, ptr %71, align 4, !tbaa !38
  %73 = and i32 %72, 8
  %74 = icmp ne i32 %73, 0
  br i1 %74, label %75, label %76

75:                                               ; preds = %68
  store i32 1, ptr %2, align 4
  store i32 1, ptr %6, align 4
  br label %97

76:                                               ; preds = %68
  %77 = load ptr, ptr %3, align 8, !tbaa !66
  %78 = getelementptr inbounds nuw %struct._Node, ptr %77, i32 0, i32 0
  %79 = getelementptr inbounds nuw %struct.EncloseNode, ptr %78, i32 0, i32 1
  %80 = load i32, ptr %79, align 4, !tbaa !38
  %81 = or i32 %80, 16
  store i32 %81, ptr %79, align 4, !tbaa !38
  %82 = load ptr, ptr %3, align 8, !tbaa !66
  %83 = getelementptr inbounds nuw %struct._Node, ptr %82, i32 0, i32 0
  %84 = getelementptr inbounds nuw %struct.EncloseNode, ptr %83, i32 0, i32 6
  %85 = load ptr, ptr %84, align 8, !tbaa !38
  %86 = call i32 @subexp_recursive_check(ptr noundef %85)
  store i32 %86, ptr %4, align 4, !tbaa !7
  %87 = load ptr, ptr %3, align 8, !tbaa !66
  %88 = getelementptr inbounds nuw %struct._Node, ptr %87, i32 0, i32 0
  %89 = getelementptr inbounds nuw %struct.EncloseNode, ptr %88, i32 0, i32 1
  %90 = load i32, ptr %89, align 4, !tbaa !38
  %91 = and i32 %90, -17
  store i32 %91, ptr %89, align 4, !tbaa !38
  br label %92

92:                                               ; preds = %76
  br label %93

93:                                               ; preds = %92
  br label %95

94:                                               ; preds = %1
  br label %95

95:                                               ; preds = %94, %93, %59, %44, %27, %26
  %96 = load i32, ptr %4, align 4, !tbaa !7
  store i32 %96, ptr %2, align 4
  store i32 1, ptr %6, align 4
  br label %97

97:                                               ; preds = %95, %75, %67
  call void @llvm.lifetime.end.p0(i64 4, ptr %4) #11
  %98 = load i32, ptr %2, align 4
  ret i32 %98
}