; Function Attrs: nofree nosync nounwind sspstrong memory(readwrite, inaccessiblemem: none) uwtable
define internal fastcc range(i32 0, 2) i32 @subexp_recursive_check(ptr noundef captures(none) %0) unnamed_addr #13 {
  br label %tailrecurse

tailrecurse:                                      ; preds = %tailrecurse.backedge, %1
  %.tr = phi ptr [ %0, %1 ], [ %.tr.be, %tailrecurse.backedge ]
  %2 = load i32, ptr %.tr, align 8, !tbaa !34
  switch i32 %2, label %common.ret47 [
    i32 8, label %.preheader
    i32 9, label %.preheader
    i32 5, label %tailrecurse.backedge
    i32 7, label %10
    i32 10, label %15
    i32 6, label %23
  ]

.preheader:                                       ; preds = %tailrecurse, %tailrecurse
  br label %3

3:                                                ; preds = %.preheader, %3
  %.018 = phi ptr [ %9, %3 ], [ %.tr, %.preheader ]
  %.017 = phi i32 [ %7, %3 ], [ 0, %.preheader ]
  %4 = getelementptr inbounds nuw i8, ptr %.018, i64 8
  %5 = load ptr, ptr %4, align 8, !tbaa !34
  %6 = tail call fastcc i32 @subexp_recursive_check(ptr noundef %5)
  %7 = or i32 %6, %.017
  %8 = getelementptr inbounds nuw i8, ptr %.018, i64 16
  %9 = load ptr, ptr %8, align 8, !tbaa !34
  %.not23 = icmp eq ptr %9, null
  br i1 %.not23, label %common.ret47, label %3, !llvm.loop !228

tailrecurse.backedge:                             ; preds = %10, %10, %10, %10, %tailrecurse
  %.tr.be.in = getelementptr inbounds nuw i8, ptr %.tr, i64 8
  %.tr.be = load ptr, ptr %.tr.be.in, align 8, !tbaa !34
  br label %tailrecurse

10:                                               ; preds = %tailrecurse
  %11 = getelementptr inbounds nuw i8, ptr %.tr, i64 4
  %12 = load i32, ptr %11, align 4, !tbaa !138
  %13 = add i32 %12, -1024
  %14 = tail call i32 @llvm.fshl.i32(i32 %13, i32 %13, i32 22)
  switch i32 %14, label %common.ret47 [
    i32 0, label %tailrecurse.backedge
    i32 1, label %tailrecurse.backedge
    i32 3, label %tailrecurse.backedge
    i32 7, label %tailrecurse.backedge
  ]

15:                                               ; preds = %tailrecurse
  %16 = getelementptr inbounds nuw i8, ptr %.tr, i64 32
  %17 = load ptr, ptr %16, align 8, !tbaa !34
  %18 = tail call fastcc i32 @subexp_recursive_check(ptr noundef %17)
  %.not22 = icmp eq i32 %18, 0
  br i1 %.not22, label %common.ret47, label %19

19:                                               ; preds = %15
  %20 = getelementptr inbounds nuw i8, ptr %.tr, i64 4
  %21 = load i32, ptr %20, align 4, !tbaa !34
  %22 = or i32 %21, 128
  store i32 %22, ptr %20, align 4, !tbaa !34
  br label %common.ret47

23:                                               ; preds = %tailrecurse
  %24 = getelementptr inbounds nuw i8, ptr %.tr, i64 4
  %25 = load i32, ptr %24, align 4, !tbaa !34
  %26 = and i32 %25, 16
  %.not = icmp eq i32 %26, 0
  br i1 %.not, label %27, label %common.ret47

27:                                               ; preds = %23
  %28 = and i32 %25, 8
  %.not21 = icmp eq i32 %28, 0
  br i1 %.not21, label %29, label %common.ret47

common.ret47:                                     ; preds = %19, %15, %27, %23, %3, %tailrecurse, %10, %29
  %common.ret47.op = phi i32 [ %33, %29 ], [ 0, %23 ], [ 1, %27 ], [ 1, %19 ], [ 0, %15 ], [ %7, %3 ], [ 0, %tailrecurse ], [ 0, %10 ]
  ret i32 %common.ret47.op

29:                                               ; preds = %27
  %30 = or disjoint i32 %25, 16
  store i32 %30, ptr %24, align 4, !tbaa !34
  %31 = getelementptr inbounds nuw i8, ptr %.tr, i64 24
  %32 = load ptr, ptr %31, align 8, !tbaa !34
  %33 = tail call fastcc i32 @subexp_recursive_check(ptr noundef %32)
  %34 = load i32, ptr %24, align 4, !tbaa !34
  %35 = and i32 %34, -17
  store i32 %35, ptr %24, align 4, !tbaa !34
  br label %common.ret47
}